; Function Attrs: mustprogress uwtable
define noundef zeroext i1 @_Z27grpc_channel_args_find_boolPK17grpc_channel_argsPKcb(ptr noundef readonly %0, ptr noundef readonly captures(none) %1, i1 noundef zeroext %2) local_unnamed_addr #9 {
  %.not.i = icmp eq ptr %0, null
  br i1 %.not.i, label %_Z22grpc_channel_args_findPK17grpc_channel_argsPKc.exit, label %.preheader.i

.preheader.i:                                     ; preds = %3
  %4 = load i64, ptr %0, align 8, !tbaa !51
  %.not20.i = icmp eq i64 %4, 0
  br i1 %.not20.i, label %_Z22grpc_channel_args_findPK17grpc_channel_argsPKc.exit, label %.lr.ph.i

.lr.ph.i:                                         ; preds = %.preheader.i
  %5 = getelementptr inbounds nuw i8, ptr %0, i64 8
  %6 = load ptr, ptr %5, align 8, !tbaa !53
  br label %9

7:                                                ; preds = %9
  %8 = add nuw i64 %.01017.i, 1
  %exitcond.not.i = icmp eq i64 %8, %4
  br i1 %exitcond.not.i, label %_Z22grpc_channel_args_findPK17grpc_channel_argsPKc.exit, label %9, !llvm.loop !179

9:                                                ; preds = %7, %.lr.ph.i
  %.01017.i = phi i64 [ 0, %.lr.ph.i ], [ %8, %7 ]
  %10 = getelementptr inbounds nuw %struct.grpc_arg, ptr %6, i64 %.01017.i
  %11 = getelementptr inbounds nuw i8, ptr %10, i64 8
  %12 = load ptr, ptr %11, align 8, !tbaa !40
  %13 = tail call i32 @strcmp(ptr noundef nonnull dereferenceable(1) %12, ptr noundef nonnull readonly dereferenceable(1) %1) #44
  %14 = icmp eq i32 %13, 0
  br i1 %14, label %_Z22grpc_channel_args_findPK17grpc_channel_argsPKc.exit, label %7

_Z22grpc_channel_args_findPK17grpc_channel_argsPKc.exit: ; preds = %7, %9, %3, %.preheader.i
  %.1.i = phi ptr [ null, %3 ], [ null, %.preheader.i ], [ %10, %9 ], [ null, %7 ]
  %15 = tail call noundef zeroext i1 @_Z25grpc_channel_arg_get_boolPK8grpc_argb(ptr noundef %.1.i, i1 noundef zeroext %2)
  ret i1 %15
}